target datalayout = "e-m:e-p270:32:32-p271:32:32-p272:64:64-i64:64-i128:128-f80:128-n8:16:32:64-S128"
target triple = "x86_64-pc-linux-gnu"

%struct.strbuf = type { i64, i64, ptr }
%struct.strvec = type { ptr, i64, i64 }
%struct.replay_opts = type { i32, i32, i32, i32, i32, i32, i32, i32, i32, i32, i32, i32, i32, i32, i32, i32, i32, i32, ptr, i32, i32, ptr, ptr, %struct.strvec, ptr, %struct.object_id, i32, ptr, ptr }
%struct.object_id = type { [32 x i8], i32 }

@strbuf_slopbuf = external global [0 x i8], align 1
@__const.sequencer_remove_state.buf = private unnamed_addr constant %struct.strbuf { i64 0, i64 0, ptr @strbuf_slopbuf }, align 8
@the_repository = external global ptr, align 8
@.str.4 = private unnamed_addr constant [17 x i8] c"(rebase) cleanup\00", align 1
@.str.5 = private unnamed_addr constant [22 x i8] c"could not delete '%s'\00", align 1
@.str.6 = private unnamed_addr constant [22 x i8] c"could not remove '%s'\00", align 1
@.str.46 = private unnamed_addr constant [1 x i8] zeroinitializer, align 1
@rebase_path_refs_to_delete.ret = internal global ptr null, align 8
@.str.113 = private unnamed_addr constant [28 x i8] c"rebase-merge/refs-to-delete\00", align 1
@git_gettext_enabled = external global i32, align 4
@.str.114 = private unnamed_addr constant [11 x i8] c"./strbuf.h\00", align 1
@.str.115 = private unnamed_addr constant [30 x i8] c"strbuf_setlen() beyond buffer\00", align 1
@git_path_seq_dir.ret = internal global ptr null, align 8
@.str.178 = private unnamed_addr constant [10 x i8] c"sequencer\00", align 1
@rebase_path.ret = internal global ptr null, align 8
@.str.474 = private unnamed_addr constant [13 x i8] c"rebase-merge\00", align 1

; Function Attrs: nounwind uwtable
define internal ptr @git_path_seq_dir() #0 {
  %1 = load ptr, ptr @git_path_seq_dir.ret, align 8, !tbaa !4
  %2 = icmp ne ptr %1, null
  br i1 %2, label %5, label %3

3:                                                ; preds = %0
  %4 = call ptr (ptr, ...) @git_pathdup(ptr noundef @.str.178)
  store ptr %4, ptr @git_path_seq_dir.ret, align 8, !tbaa !4
  br label %5

5:                                                ; preds = %3, %0
  %6 = load ptr, ptr @git_path_seq_dir.ret, align 8, !tbaa !4
  ret ptr %6
}

; Function Attrs: nounwind uwtable
define internal ptr @rebase_path() #0 {
  %1 = load ptr, ptr @rebase_path.ret, align 8, !tbaa !4
  %2 = icmp ne ptr %1, null
  br i1 %2, label %5, label %3

3:                                                ; preds = %0
  %4 = call ptr (ptr, ...) @git_pathdup(ptr noundef @.str.474)
  store ptr %4, ptr @rebase_path.ret, align 8, !tbaa !4
  br label %5

5:                                                ; preds = %3, %0
  %6 = load ptr, ptr @rebase_path.ret, align 8, !tbaa !4
  ret ptr %6
}

; Function Attrs: inlinehint nounwind uwtable
define internal i32 @const_error() #1 {
  ret i32 -1
}

; Function Attrs: inlinehint nounwind uwtable
define internal void @strbuf_addstr(ptr noundef %0, ptr noundef %1) #1 {
  %3 = alloca ptr, align 8
  %4 = alloca ptr, align 8
  store ptr %0, ptr %3, align 8, !tbaa !41
  store ptr %1, ptr %4, align 8, !tbaa !4
  %5 = load ptr, ptr %3, align 8, !tbaa !41
  %6 = load ptr, ptr %4, align 8, !tbaa !4
  %7 = load ptr, ptr %4, align 8, !tbaa !4
  %8 = call i64 @strlen(ptr noundef %7) #12
  call void @strbuf_add(ptr noundef %5, ptr noundef %6, i64 noundef %8)
  ret void
}

; Function Attrs: nounwind uwtable
define internal ptr @get_dir(ptr noundef %0) #0 {
  %2 = alloca ptr, align 8
  %3 = alloca ptr, align 8
  store ptr %0, ptr %3, align 8, !tbaa !13
  %4 = load ptr, ptr %3, align 8, !tbaa !13
  %5 = call i32 @is_rebase_i(ptr noundef %4)
  %6 = icmp ne i32 %5, 0
  br i1 %6, label %7, label %9

7:                                                ; preds = %1
  %8 = call ptr @rebase_path()
  store ptr %8, ptr %2, align 8
  br label %11

9:                                                ; preds = %1
  %10 = call ptr @git_path_seq_dir()
  store ptr %10, ptr %2, align 8
  br label %11

11:                                               ; preds = %9, %7
  %12 = load ptr, ptr %2, align 8
  ret ptr %12
}

; Function Attrs: inlinehint nounwind uwtable
define internal void @strbuf_setlen(ptr noundef %0, i64 noundef %1) #1 {
  %3 = alloca ptr, align 8
  %4 = alloca i64, align 8
  store ptr %0, ptr %3, align 8, !tbaa !41
  store i64 %1, ptr %4, align 8, !tbaa !43
  %5 = load i64, ptr %4, align 8, !tbaa !43
  %6 = load ptr, ptr %3, align 8, !tbaa !41
  %7 = getelementptr inbounds nuw %struct.strbuf, ptr %6, i32 0, i32 0
  %8 = load i64, ptr %7, align 8, !tbaa !44
  %9 = icmp ne i64 %8, 0
  br i1 %9, label %10, label %15

10:                                               ; preds = %2
  %11 = load ptr, ptr %3, align 8, !tbaa !41
  %12 = getelementptr inbounds nuw %struct.strbuf, ptr %11, i32 0, i32 0
  %13 = load i64, ptr %12, align 8, !tbaa !44
  %14 = sub i64 %13, 1
  br label %16

15:                                               ; preds = %2
  br label %16

16:                                               ; preds = %15, %10
  %17 = phi i64 [ %14, %10 ], [ 0, %15 ]
  %18 = icmp ugt i64 %5, %17
  br i1 %18, label %19, label %20

19:                                               ; preds = %16
  call void (ptr, i32, ptr, ...) @BUG_fl(ptr noundef @.str.114, i32 noundef 167, ptr noundef @.str.115) #13
  unreachable

20:                                               ; preds = %16
  %21 = load i64, ptr %4, align 8, !tbaa !43
  %22 = load ptr, ptr %3, align 8, !tbaa !41
  %23 = getelementptr inbounds nuw %struct.strbuf, ptr %22, i32 0, i32 1
  store i64 %21, ptr %23, align 8, !tbaa !45
  %24 = load ptr, ptr %3, align 8, !tbaa !41
  %25 = getelementptr inbounds nuw %struct.strbuf, ptr %24, i32 0, i32 2
  %26 = load ptr, ptr %25, align 8, !tbaa !37
  %27 = icmp ne ptr %26, @strbuf_slopbuf
  br i1 %27, label %28, label %34

28:                                               ; preds = %20
  %29 = load ptr, ptr %3, align 8, !tbaa !41
  %30 = getelementptr inbounds nuw %struct.strbuf, ptr %29, i32 0, i32 2
  %31 = load ptr, ptr %30, align 8, !tbaa !37
  %32 = load i64, ptr %4, align 8, !tbaa !43
  %33 = getelementptr inbounds nuw i8, ptr %31, i64 %32
  store i8 0, ptr %33, align 1, !tbaa !30
  br label %35

34:                                               ; preds = %20
  br label %35

35:                                               ; preds = %34, %28
  ret void
}

; Function Attrs: inlinehint nounwind uwtable
define internal ptr @_(ptr noundef %0) #1 {
  %2 = alloca ptr, align 8
  %3 = alloca ptr, align 8
  store ptr %0, ptr %3, align 8, !tbaa !4
  %4 = load ptr, ptr %3, align 8, !tbaa !4
  %5 = load i8, ptr %4, align 1, !tbaa !30
  %6 = icmp ne i8 %5, 0
  br i1 %6, label %8, label %7

7:                                                ; preds = %1
  store ptr @.str.46, ptr %2, align 8
  br label %16

8:                                                ; preds = %1
  %9 = load i32, ptr @git_gettext_enabled, align 4, !tbaa !29
  %10 = icmp ne i32 %9, 0
  br i1 %10, label %13, label %11

11:                                               ; preds = %8
  %12 = load ptr, ptr %3, align 8, !tbaa !4
  store ptr %12, ptr %2, align 8
  br label %16

13:                                               ; preds = %8
  %14 = load ptr, ptr %3, align 8, !tbaa !4
  %15 = call ptr @dcgettext(ptr noundef null, ptr noundef %14, i32 noundef 5) #11
  store ptr %15, ptr %2, align 8
  br label %16

16:                                               ; preds = %13, %11, %7
  %17 = load ptr, ptr %2, align 8
  ret ptr %17
}

; Function Attrs: nounwind uwtable
define internal ptr @rebase_path_refs_to_delete() #0 {
  %1 = load ptr, ptr @rebase_path_refs_to_delete.ret, align 8, !tbaa !4
  %2 = icmp ne ptr %1, null
  br i1 %2, label %5, label %3

3:                                                ; preds = %0
  %4 = call ptr (ptr, ...) @git_pathdup(ptr noundef @.str.113)
  store ptr %4, ptr @rebase_path_refs_to_delete.ret, align 8, !tbaa !4
  br label %5

5:                                                ; preds = %3, %0
  %6 = load ptr, ptr @rebase_path_refs_to_delete.ret, align 8, !tbaa !4
  ret ptr %6
}

; Function Attrs: inlinehint nounwind uwtable
define internal i32 @is_rebase_i(ptr noundef %0) #1 {
  %2 = alloca ptr, align 8
  store ptr %0, ptr %2, align 8, !tbaa !13
  %3 = load ptr, ptr %2, align 8, !tbaa !13
  %4 = getelementptr inbounds nuw %struct.replay_opts, ptr %3, i32 0, i32 0
  %5 = load i32, ptr %4, align 8, !tbaa !31
  %6 = icmp eq i32 %5, 2
  %7 = zext i1 %6 to i32
  ret i32 %7
}

; Function Attrs: nounwind uwtable
define dso_local i32 @sequencer_remove_state(ptr noundef %0) #0 {
  %2 = alloca ptr, align 8
  %3 = alloca %struct.strbuf, align 8
  %4 = alloca i32, align 4
  %5 = alloca ptr, align 8
  %6 = alloca ptr, align 8
  %7 = alloca i32, align 4
  store ptr %0, ptr %2, align 8, !tbaa !13
  call void @llvm.lifetime.start.p0(i64 24, ptr %3) #11
  call void @llvm.memcpy.p0.p0.i64(ptr align 8 %3, ptr align 8 @__const.sequencer_remove_state.buf, i64 24, i1 false)
  call void @llvm.lifetime.start.p0(i64 4, ptr %4) #11
  store i32 0, ptr %4, align 4, !tbaa !29
  %8 = load ptr, ptr %2, align 8, !tbaa !13
  %9 = call i32 @is_rebase_i(ptr noundef %8)
  %10 = icmp ne i32 %9, 0
  br i1 %10, label %11, label %49

11:                                               ; preds = %1
  %12 = call ptr @rebase_path_refs_to_delete()
  %13 = call i64 @strbuf_read_file(ptr noundef %3, ptr noundef %12, i64 noundef 0)
  %14 = icmp sgt i64 %13, 0
  br i1 %14, label %15, label %49

15:                                               ; preds = %11
  call void @llvm.lifetime.start.p0(i64 8, ptr %5) #11
  %16 = getelementptr inbounds nuw %struct.strbuf, ptr %3, i32 0, i32 2
  %17 = load ptr, ptr %16, align 8, !tbaa !37
  store ptr %17, ptr %5, align 8, !tbaa !4
  br label %18

18:                                               ; preds = %47, %15
  %19 = load ptr, ptr %5, align 8, !tbaa !4
  %20 = load i8, ptr %19, align 1, !tbaa !30
  %21 = icmp ne i8 %20, 0
  br i1 %21, label %22, label %48

22:                                               ; preds = %18
  call void @llvm.lifetime.start.p0(i64 8, ptr %6) #11
  %23 = load ptr, ptr %5, align 8, !tbaa !4
  %24 = call ptr @strchr(ptr noundef %23, i32 noundef 10) #12
  store ptr %24, ptr %6, align 8, !tbaa !4
  %25 = load ptr, ptr %6, align 8, !tbaa !4
  %26 = icmp ne ptr %25, null
  br i1 %26, label %27, label %29

27:                                               ; preds = %22
  %28 = load ptr, ptr %6, align 8, !tbaa !4
  store i8 0, ptr %28, align 1, !tbaa !30
  br label %29

29:                                               ; preds = %27, %22
  %30 = load ptr, ptr @the_repository, align 8, !tbaa !9
  %31 = call ptr @get_main_ref_store(ptr noundef %30)
  %32 = load ptr, ptr %5, align 8, !tbaa !4
  %33 = call i32 @refs_delete_ref(ptr noundef %31, ptr noundef @.str.4, ptr noundef %32, ptr noundef null, i32 noundef 0)
  %34 = icmp slt i32 %33, 0
  br i1 %34, label %35, label %38

35:                                               ; preds = %29
  %36 = call ptr @_(ptr noundef @.str.5)
  %37 = load ptr, ptr %5, align 8, !tbaa !4
  call void (ptr, ...) @warning(ptr noundef %36, ptr noundef %37)
  store i32 -1, ptr %4, align 4, !tbaa !29
  br label %38

38:                                               ; preds = %35, %29
  %39 = load ptr, ptr %6, align 8, !tbaa !4
  %40 = icmp ne ptr %39, null
  br i1 %40, label %42, label %41

41:                                               ; preds = %38
  store i32 3, ptr %7, align 4
  br label %45

42:                                               ; preds = %38
  %43 = load ptr, ptr %6, align 8, !tbaa !4
  %44 = getelementptr inbounds i8, ptr %43, i64 1
  store ptr %44, ptr %5, align 8, !tbaa !4
  store i32 0, ptr %7, align 4
  br label %45

45:                                               ; preds = %42, %41
  call void @llvm.lifetime.end.p0(i64 8, ptr %6) #11
  %46 = load i32, ptr %7, align 4
  switch i32 %46, label %62 [
    i32 0, label %47
    i32 3, label %48
  ]

47:                                               ; preds = %45
  br label %18, !llvm.loop !39

48:                                               ; preds = %45, %18
  call void @llvm.lifetime.end.p0(i64 8, ptr %5) #11
  br label %49

49:                                               ; preds = %48, %11, %1
  call void @strbuf_setlen(ptr noundef %3, i64 noundef 0)
  %50 = load ptr, ptr %2, align 8, !tbaa !13
  %51 = call ptr @get_dir(ptr noundef %50)
  call void @strbuf_addstr(ptr noundef %3, ptr noundef %51)
  %52 = call i32 @remove_dir_recursively(ptr noundef %3, i32 noundef 0)
  %53 = icmp ne i32 %52, 0
  br i1 %53, label %54, label %60

54:                                               ; preds = %49
  %55 = call ptr @_(ptr noundef @.str.6)
  %56 = getelementptr inbounds nuw %struct.strbuf, ptr %3, i32 0, i32 2
  %57 = load ptr, ptr %56, align 8, !tbaa !37
  %58 = call i32 (ptr, ...) @error(ptr noundef %55, ptr noundef %57)
  %59 = call i32 @const_error()
  store i32 %59, ptr %4, align 4, !tbaa !29
  br label %60

60:                                               ; preds = %54, %49
  call void @strbuf_release(ptr noundef %3)
  %61 = load i32, ptr %4, align 4, !tbaa !29
  store i32 1, ptr %7, align 4
  call void @llvm.lifetime.end.p0(i64 4, ptr %4) #11
  call void @llvm.lifetime.end.p0(i64 24, ptr %3) #11
  ret i32 %61

62:                                               ; preds = %45
  unreachable
}