; Function Attrs: nounwind uwtable
define dso_local range(i32 -1, 1) i32 @sequencer_remove_state(ptr noundef readonly captures(none) %0) local_unnamed_addr #0 {
  %2 = alloca %struct.strbuf, align 8
  call void @llvm.lifetime.start.p0(i64 24, ptr nonnull %2) #20
  call void @llvm.memcpy.p0.p0.i64(ptr noundef nonnull align 8 dereferenceable(24) %2, ptr noundef nonnull align 8 dereferenceable(24) @__const.make_script_with_merges.label_from_message, i64 24, i1 false)
  %.val = load i32, ptr %0, align 8, !tbaa !25
  %.not = icmp eq i32 %.val, 2
  br i1 %.not, label %3, label %.loopexit

3:                                                ; preds = %1
  %4 = load ptr, ptr @rebase_path_refs_to_delete.ret, align 8, !tbaa !4
  %.not.i = icmp eq ptr %4, null
  br i1 %.not.i, label %5, label %rebase_path_refs_to_delete.exit

5:                                                ; preds = %3
  %6 = tail call ptr (ptr, ...) @git_pathdup(ptr noundef nonnull @.str.113)
  store ptr %6, ptr @rebase_path_refs_to_delete.ret, align 8, !tbaa !4
  br label %rebase_path_refs_to_delete.exit

rebase_path_refs_to_delete.exit:                  ; preds = %3, %5
  %7 = phi ptr [ %6, %5 ], [ %4, %3 ]
  %8 = call i64 @strbuf_read_file(ptr noundef nonnull %2, ptr noundef %7, i64 noundef 0) #20
  %9 = icmp sgt i64 %8, 0
  br i1 %9, label %10, label %.loopexit

10:                                               ; preds = %rebase_path_refs_to_delete.exit
  %11 = getelementptr inbounds nuw i8, ptr %2, i64 16
  %12 = load ptr, ptr %11, align 8, !tbaa !31
  br label %13

13:                                               ; preds = %27, %10
  %.012 = phi ptr [ %12, %10 ], [ %28, %27 ]
  %.1 = phi i32 [ 0, %10 ], [ %.3, %27 ]
  %14 = load i8, ptr %.012, align 1, !tbaa !24
  %.not16 = icmp eq i8 %14, 0
  br i1 %.not16, label %.loopexit, label %15

15:                                               ; preds = %13
  %16 = call ptr @strchr(ptr noundef nonnull dereferenceable(1) %.012, i32 noundef 10) #21
  %.not17 = icmp eq ptr %16, null
  br i1 %.not17, label %18, label %17

17:                                               ; preds = %15
  store i8 0, ptr %16, align 1, !tbaa !24
  br label %18

18:                                               ; preds = %17, %15
  %19 = load ptr, ptr @the_repository, align 8, !tbaa !9
  %20 = call ptr @get_main_ref_store(ptr noundef %19) #20
  %21 = call i32 @refs_delete_ref(ptr noundef %20, ptr noundef nonnull @.str.4, ptr noundef nonnull %.012, ptr noundef null, i32 noundef 0) #20
  %22 = icmp slt i32 %21, 0
  br i1 %22, label %23, label %27

23:                                               ; preds = %18
  %24 = load i32, ptr @git_gettext_enabled, align 4, !tbaa !21
  %.not4.i = icmp eq i32 %24, 0
  br i1 %.not4.i, label %_.exit, label %25

25:                                               ; preds = %23
  %26 = call ptr @dcgettext(ptr noundef null, ptr noundef nonnull @.str.5, i32 noundef 5) #20
  br label %_.exit

_.exit:                                           ; preds = %23, %25
  %.0.i = phi ptr [ %26, %25 ], [ @.str.5, %23 ]
  call void (ptr, ...) @warning(ptr noundef %.0.i, ptr noundef nonnull %.012) #20
  br label %27

27:                                               ; preds = %_.exit, %18
  %.3 = phi i32 [ -1, %_.exit ], [ %.1, %18 ]
  %28 = getelementptr inbounds nuw i8, ptr %16, i64 1
  br i1 %.not17, label %.loopexit, label %13

.loopexit:                                        ; preds = %27, %13, %rebase_path_refs_to_delete.exit, %1
  %.011 = phi i32 [ 0, %rebase_path_refs_to_delete.exit ], [ 0, %1 ], [ %.1, %13 ], [ %.3, %27 ]
  %29 = getelementptr inbounds nuw i8, ptr %2, i64 8
  store i64 0, ptr %29, align 8, !tbaa !33
  %30 = getelementptr inbounds nuw i8, ptr %2, i64 16
  %31 = load ptr, ptr %30, align 8, !tbaa !31
  %.not9.i = icmp eq ptr %31, @strbuf_slopbuf
  br i1 %.not9.i, label %strbuf_setlen.exit, label %32

32:                                               ; preds = %.loopexit
  store i8 0, ptr %31, align 1, !tbaa !24
  br label %strbuf_setlen.exit

strbuf_setlen.exit:                               ; preds = %.loopexit, %32
  %.val19 = load i32, ptr %0, align 8, !tbaa !25
  %.not.i20 = icmp eq i32 %.val19, 2
  br i1 %.not.i20, label %33, label %35

33:                                               ; preds = %strbuf_setlen.exit
  %34 = load ptr, ptr @rebase_path.ret, align 8, !tbaa !4
  %.not.i.i = icmp eq ptr %34, null
  br i1 %.not.i.i, label %rebase_path.exit.sink.split.i, label %get_dir.exit

35:                                               ; preds = %strbuf_setlen.exit
  %36 = load ptr, ptr @git_path_seq_dir.ret, align 8, !tbaa !4
  %.not.i2.i = icmp eq ptr %36, null
  br i1 %.not.i2.i, label %rebase_path.exit.sink.split.i, label %get_dir.exit

rebase_path.exit.sink.split.i:                    ; preds = %35, %33
  %.str.178.sink.i = phi ptr [ @.str.474, %33 ], [ @.str.178, %35 ]
  %git_path_seq_dir.ret.sink.i = phi ptr [ @rebase_path.ret, %33 ], [ @git_path_seq_dir.ret, %35 ]
  %37 = call ptr (ptr, ...) @git_pathdup(ptr noundef nonnull %.str.178.sink.i)
  store ptr %37, ptr %git_path_seq_dir.ret.sink.i, align 8, !tbaa !4
  br label %get_dir.exit

get_dir.exit:                                     ; preds = %33, %35, %rebase_path.exit.sink.split.i
  %.0.i21 = phi ptr [ %34, %33 ], [ %36, %35 ], [ %37, %rebase_path.exit.sink.split.i ]
  %38 = call i64 @strlen(ptr noundef nonnull dereferenceable(1) %.0.i21) #21
  call void @strbuf_add(ptr noundef nonnull %2, ptr noundef nonnull %.0.i21, i64 noundef %38) #20
  %39 = call i32 @remove_dir_recursively(ptr noundef nonnull %2, i32 noundef 0) #20
  %.not18 = icmp eq i32 %39, 0
  br i1 %.not18, label %46, label %40

40:                                               ; preds = %get_dir.exit
  %41 = load i32, ptr @git_gettext_enabled, align 4, !tbaa !21
  %.not4.i22 = icmp eq i32 %41, 0
  br i1 %.not4.i22, label %_.exit24, label %42

42:                                               ; preds = %40
  %43 = call ptr @dcgettext(ptr noundef null, ptr noundef nonnull @.str.6, i32 noundef 5) #20
  br label %_.exit24

_.exit24:                                         ; preds = %40, %42
  %.0.i23 = phi ptr [ %43, %42 ], [ @.str.6, %40 ]
  %44 = load ptr, ptr %30, align 8, !tbaa !31
  %45 = call i32 (ptr, ...) @error(ptr noundef %.0.i23, ptr noundef %44) #20
  br label %46

46:                                               ; preds = %_.exit24, %get_dir.exit
  %.4 = phi i32 [ -1, %_.exit24 ], [ %.011, %get_dir.exit ]
  call void @strbuf_release(ptr noundef nonnull %2) #20
  call void @llvm.lifetime.end.p0(i64 24, ptr nonnull %2) #20
  ret i32 %.4
}